target datalayout = "e-m:e-p270:32:32-p271:32:32-p272:64:64-i64:64-i128:128-f80:128-n8:16:32:64-S128"
target triple = "x86_64-pc-linux-gnu"

%"class.OpenColorIO_v2_5dev::BuiltinConfigRegistryImpl" = type { %"class.OpenColorIO_v2_5dev::BuiltinConfigRegistry", %"class.std::vector.3" }
%"class.OpenColorIO_v2_5dev::BuiltinConfigRegistry" = type { ptr }
%"class.std::vector.3" = type { %"struct.std::_Vector_base.4" }
%"struct.std::_Vector_base.4" = type { %"struct.std::_Vector_base<OpenColorIO_v2_5dev::BuiltinConfigRegistryImpl::BuiltinConfigData, std::allocator<OpenColorIO_v2_5dev::BuiltinConfigRegistryImpl::BuiltinConfigData>>::_Vector_impl" }
%"struct.std::_Vector_base<OpenColorIO_v2_5dev::BuiltinConfigRegistryImpl::BuiltinConfigData, std::allocator<OpenColorIO_v2_5dev::BuiltinConfigRegistryImpl::BuiltinConfigData>>::_Vector_impl" = type { %"struct.std::_Vector_base<OpenColorIO_v2_5dev::BuiltinConfigRegistryImpl::BuiltinConfigData, std::allocator<OpenColorIO_v2_5dev::BuiltinConfigRegistryImpl::BuiltinConfigData>>::_Vector_impl_data" }
%"struct.std::_Vector_base<OpenColorIO_v2_5dev::BuiltinConfigRegistryImpl::BuiltinConfigData, std::allocator<OpenColorIO_v2_5dev::BuiltinConfigRegistryImpl::BuiltinConfigData>>::_Vector_impl_data" = type { ptr, ptr, ptr }

; Function Attrs: mustprogress nounwind uwtable
define linkonce_odr hidden noundef i64 @_ZNKSt6vectorIN19OpenColorIO_v2_5dev25BuiltinConfigRegistryImpl17BuiltinConfigDataESaIS2_EE4sizeEv(ptr noundef nonnull align 8 dereferenceable(24) %0) #0 comdat align 2 {
  %2 = alloca ptr, align 8
  store ptr %0, ptr %2, align 8, !tbaa !33
  %3 = load ptr, ptr %2, align 8
  %4 = getelementptr inbounds nuw %"struct.std::_Vector_base.4", ptr %3, i32 0, i32 0
  %5 = getelementptr inbounds nuw %"struct.std::_Vector_base<OpenColorIO_v2_5dev::BuiltinConfigRegistryImpl::BuiltinConfigData, std::allocator<OpenColorIO_v2_5dev::BuiltinConfigRegistryImpl::BuiltinConfigData>>::_Vector_impl_data", ptr %4, i32 0, i32 1
  %6 = load ptr, ptr %5, align 8, !tbaa !52
  %7 = getelementptr inbounds nuw %"struct.std::_Vector_base.4", ptr %3, i32 0, i32 0
  %8 = getelementptr inbounds nuw %"struct.std::_Vector_base<OpenColorIO_v2_5dev::BuiltinConfigRegistryImpl::BuiltinConfigData, std::allocator<OpenColorIO_v2_5dev::BuiltinConfigRegistryImpl::BuiltinConfigData>>::_Vector_impl_data", ptr %7, i32 0, i32 0
  %9 = load ptr, ptr %8, align 8, !tbaa !35
  %10 = ptrtoint ptr %6 to i64
  %11 = ptrtoint ptr %9 to i64
  %12 = sub i64 %10, %11
  %13 = sdiv exact i64 %12, 80
  ret i64 %13
}

; Function Attrs: mustprogress nounwind uwtable
define hidden noundef i64 @_ZNK19OpenColorIO_v2_5dev25BuiltinConfigRegistryImpl20getNumBuiltinConfigsEv(ptr noundef nonnull align 8 dereferenceable(32) %0) unnamed_addr #0 align 2 {
  %2 = alloca ptr, align 8
  store ptr %0, ptr %2, align 8, !tbaa !23
  %3 = load ptr, ptr %2, align 8
  %4 = getelementptr inbounds nuw %"class.OpenColorIO_v2_5dev::BuiltinConfigRegistryImpl", ptr %3, i32 0, i32 1
  %5 = call noundef i64 @_ZNKSt6vectorIN19OpenColorIO_v2_5dev25BuiltinConfigRegistryImpl17BuiltinConfigDataESaIS2_EE4sizeEv(ptr noundef nonnull align 8 dereferenceable(24) %4) #1
  ret i64 %5
}